004041E5: A3A0694300               MOV [4369A0H], EAX
004041EA: FF1554834300             CALL [00438354H] ; InitCommonControls
004041F0: C7042400000000           MOV [ESP], 00000000H
004041F7: FF1574844300             CALL [00438474H] ; OleInitialize
004041FD: A318694300               MOV [436918H], EAX
00404202: 57                       PUSH EDI
00404203: 8D8588FEFFFF             LEA EAX, [EBP-00000178H]
00404209: C744241000000000         MOV [ESP+10H], 00000000H
00404211: C744240C60010000         MOV [ESP+0CH], 00000160H
00404219: 89442408                 MOV [ESP+08H], EAX
0040421D: C744240400000000         MOV [ESP+04H], 00000000H
00404225: C70424BDB24000           MOV [ESP], 0040B2BDH
0040422C: FF1588844300             CALL [00438488H] ; SHGetFileInfoA
00404232: 83EC14                   SUB ESP, 00000014H
00404235: C7442404BEB24000         MOV [ESP+04H], 0040B2BEH
0040423D: C70424C0694300           MOV [ESP], 004369C0H
00404244: E85D380000               CALL 00407AA6H
00404249: 50                       PUSH EAX
0040424A: 50                       PUSH EAX
0040424B: FF15B8834300             CALL [004383B8H] ; GetCommandLineA
00404251: C7042400F04300           MOV [ESP], 0043F000H
00404258: 89442404                 MOV [ESP+04H], EAX
0040425C: E845380000               CALL 00407AA6H
00404261: 50                       PUSH EAX
00404262: 50                       PUSH EAX
00404263: C7042400000000           MOV [ESP], 00000000H
0040426A: FF15DC834300             CALL [004383DCH] ; GetCommandLineA
00404270: A3A8694300               MOV [4369A8H], EAX
00404275: 0FBE0500F04300           MOVSX EAX, BYTE PTR [43F000H]
0040427C: 52                       PUSH EDX
0040427D: BA01F04300               MOV EDX, 0043F001H
00404282: 3C22                     CMP AL, 22H
00404284: 740A                     JZ 404290H
00404286: BA00F04300               MOV EDX, 0043F000H
0040428B: B820000000               MOV EAX, 00000020H
00404290: 891424                   MOV [ESP], EDX
00404293: 89442404                 MOV [ESP+04H], EAX
00404297: 31DB                     XOR EBX, EBX
00404299: E8F6330000               CALL 00407694H
0040429E: 52                       PUSH EDX
0040429F: 52                       PUSH EDX
004042A0: 890424                   MOV [ESP], EAX
004042A3: FF15A8844300             CALL [004384A8H] ; CharNextA
004042A9: 51                       PUSH ECX
004042AA: 898574FEFFFF             MOV [EBP-0000018CH], EAX
004042B0: 803800                   CMP BYTE PTR [EAX], 00H
004042B3: 0F8499000000             JZ 00404352H
004042B9: 8A08                     MOV CL, [EAX]
004042BB: 80F920                   CMP CL, 20H
004042BE: 7503                     JNZ 4042C3H
004042C0: 40                       INC EAX
004042C1: EBF6                     JMP 4042B9H
004042C3: 80F922                   CMP CL, 22H
004042C6: BA20000000               MOV EDX, 00000020H
004042CB: 7506                     JNZ 4042D3H
004042CD: 40                       INC EAX
004042CE: BA22000000               MOV EDX, 00000022H
004042D3: 80382F                   CMP BYTE PTR [EAX], 2FH
004042D6: 755D                     JNZ 404335H
004042D8: 80780153                 CMP BYTE PTR [EAX+01H], 53H
004042DC: 8D7801                   LEA EDI, [EAX+01H]
004042DF: 7511                     JNZ 4042F2H
004042E1: 8A4802                   MOV CL, [EAX+02H]
004042E4: 89DE                     MOV ESI, EBX
004042E6: 83CE02                   OR ESI, 00000002H
004042E9: 83C920                   OR ECX, 00000020H
004042EC: 80F920                   CMP CL, 20H
004042EF: 0F44DE                   CMOVZ EBX, ESI
004042F2: 8178014E435243           CMP [EAX+01H], 4352434EH
004042F9: 7511                     JNZ 40430CH
004042FB: 8A4805                   MOV CL, [EAX+05H]
004042FE: 89DE                     MOV ESI, EBX
00404300: 83CE04                   OR ESI, 00000004H
00404303: 83C920                   OR ECX, 00000020H
00404306: 80F920                   CMP CL, 20H
00404309: 0F44DE                   CMOVZ EBX, ESI
0040430C: 8178FF202F443D           CMP [EAX-01H], 3D442F20H
00404313: 751E                     JNZ 404333H
00404315: C740FF00000000           MOV [EAX-01H], 00000000H
0040431C: 83C003                   ADD EAX, 00000003H
0040431F: C7042400F44300           MOV [ESP], 0043F400H
00404326: 89442404                 MOV [ESP+04H], EAX
0040432A: E877370000               CALL 00407AA6H
0040432F: 57                       PUSH EDI
00404330: 57                       PUSH EDI
00404331: EB1F                     JMP 404352H
00404333: 89F8                     MOV EAX, EDI
00404335: 89542404                 MOV [ESP+04H], EDX
00404339: 890424                   MOV [ESP], EAX
0040433C: E853330000               CALL 00407694H
00404341: 31D2                     XOR EDX, EDX
00404343: 56                       PUSH ESI
00404344: 56                       PUSH ESI
00404345: 803822                   CMP BYTE PTR [EAX], 22H
00404348: 0F94C2                   SETZ DL
0040434B: 01D0                     ADD EAX, EDX
0040434D: E95EFFFFFF               JMP 004042B0H
00404352: C744240400044400         MOV [ESP+04H], 00440400H
0040435A: C7042400040000           MOV [ESP], 00000400H
00404361: FF15F4834300             CALL [004383F4H] ; GetTempPathA
00404367: 51                       PUSH ECX
00404368: 51                       PUSH ECX
00404369: E85EFDFFFF               CALL 004040CCH
0040436E: 85C0                     TEST EAX, EAX
00404370: 7427                     JZ 404399H
00404372: C7042400004400           MOV [ESP], 00440000H
00404379: 8B3D9C834300             MOV EDI, [0043839CH]
0040437F: FFD7                     CALL EDI
00404381: 50                       PUSH EAX
00404382: 891C24                   MOV [ESP], EBX
00404385: 31DB                     XOR EBX, EBX
00404387: E826FAFFFF               CALL 00403DB2H
0040438C: 85C0                     TEST EAX, EAX
0040438E: 52                       PUSH EDX
0040438F: 89C6                     MOV ESI, EAX
00404391: 0F8572020000             JNZ 00404609H
00404397: EB40                     JMP 4043D9H
00404399: C7442404FB030000         MOV [ESP+04H], 000003FBH
004043A1: C7042400044400           MOV [ESP], 00440400H
004043A8: FF1500844300             CALL [00438400H] ; GetWindowsDirectoryA
004043AE: 56                       PUSH ESI
004043AF: 56                       PUSH ESI
004043B0: C7442404C9B24000         MOV [ESP+04H], 0040B2C9H
004043B8: C7042400044400           MOV [ESP], 00440400H
004043BF: E814370000               CALL 00407AD8H
004043C4: 57                       PUSH EDI
004043C5: 57                       PUSH EDI
004043C6: E801FDFFFF               CALL 004040CCH
004043CB: 85C0                     TEST EAX, EAX
004043CD: 75A3                     JNZ 404372H
004043CF: BE7AB24000               MOV ESI, 0040B27AH -> Error writing temporary file. Make sure your temp folder is valid.
004043D4: E92E020000               JMP 00404607H
004043D9: 833D8869430000           CMP [00436988H], 00000000H
004043E0: 0F840E020000             JZ 004045F4H
004043E6: C744240400000000         MOV [ESP+04H], 00000000H
004043EE: C7042400F04300           MOV [ESP], 0043F000H
004043F5: E89A320000               CALL 00407694H
004043FA: 51                       PUSH ECX
004043FB: 51                       PUSH ECX
004043FC: 3D00F04300               CMP EAX, 0043F000H
00404401: 7251                     JB 404454H
00404403: 8138205F3F3D             CMP [EAX], 3D3F5F20H
00404409: 7403                     JZ 40440EH
0040440B: 48                       DEC EAX
0040440C: EBEE                     JMP 4043FCH
0040440E: 8D5804                   LEA EBX, [EAX+04H]
00404411: C60000                   MOV BYTE PTR [EAX], 00H
00404414: 891C24                   MOV [ESP], EBX
00404417: E82F3B0000               CALL 00407F4BH
0040441C: 85C0                     TEST EAX, EAX
0040441E: 52                       PUSH EDX
0040441F: 750A                     JNZ 40442BH
00404421: BE60B24000               MOV ESI, 0040B260H -> Error launching installer
00404426: E9DC010000               JMP 00404607H
0040442B: 895C2404                 MOV [ESP+04H], EBX
0040442F: C7042400F44300           MOV [ESP], 0043F400H
00404436: E86B360000               CALL 00407AA6H
0040443B: 57                       PUSH EDI
0040443C: 57                       PUSH EDI
0040443D: 895C2404                 MOV [ESP+04H], EBX
00404441: C7042400F84300           MOV [ESP], 0043F800H
00404448: E859360000               CALL 00407AA6H
0040444D: 50                       PUSH EAX
0040444E: 50                       PUSH EAX
0040444F: E9A0010000               JMP 004045F4H
00404454: E8823C0000               CALL 004080DBH
00404459: C7442404CFB24000         MOV [ESP+04H], 0040B2CFH
00404461: 89C3                     MOV EBX, EAX
00404463: C7042400044400           MOV [ESP], 00440400H
0040446A: E869360000               CALL 00407AD8H
0040446F: 85DB                     TEST EBX, EBX
00404471: 56                       PUSH ESI
00404472: 56                       PUSH ESI
00404473: 7416                     JZ 40448BH
00404475: C7442404D4B24000         MOV [ESP+04H], 0040B2D4H
0040447D: C7042400044400           MOV [ESP], 00440400H
00404484: E84F360000               CALL 00407AD8H
00404489: 51                       PUSH ECX
0040448A: 51                       PUSH ECX
0040448B: C7442404D6B24000         MOV [ESP+04H], 0040B2D6H
00404493: C7042400044400           MOV [ESP], 00440400H
0040449A: E839360000               CALL 00407AD8H
0040449F: 50                       PUSH EAX
004044A0: 50                       PUSH EAX
004044A1: C744240400FC4300         MOV [ESP+04H], 0043FC00H
004044A9: C7042400044400           MOV [ESP], 00440400H
004044B0: FF155C844300             CALL [0043845CH] ; lstrcmpiA
004044B6: 85C0                     TEST EAX, EAX
004044B8: 52                       PUSH EDX
004044B9: 52                       PUSH EDX
004044BA: 0F8461FFFFFF             JZ 00404421H
004044C0: 85DB                     TEST EBX, EBX
004044C2: C7042400044400           MOV [ESP], 00440400H
004044C9: 7407                     JZ 4044D2H
004044CB: E8D02F0000               CALL 004074A0H
004044D0: EB05                     JMP 4044D7H
004044D2: E864300000               CALL 0040753BH
004044D7: 50                       PUSH EAX
004044D8: C7042400044400           MOV [ESP], 00440400H
004044DF: FF1530844300             CALL [00438430H] ; SetCurrentDirectoryA
